target datalayout = "e-m:e-p270:32:32-p271:32:32-p272:64:64-i64:64-i128:128-f80:128-n8:16:32:64-S128"
target triple = "x86_64-pc-linux-gnu"

; Function Attrs: mustprogress nounwind uwtable
define internal noundef i32 @_ZN17duckdb_libpgqueryL12pg_utf_mblenEPKh(ptr noundef %0) #6 {
  %2 = alloca ptr, align 8
  %3 = alloca i32, align 4
  store ptr %0, ptr %2, align 8, !tbaa !14
  call void @llvm.lifetime.start.p0(i64 4, ptr %3) #13
  %4 = load ptr, ptr %2, align 8, !tbaa !14
  %5 = load i8, ptr %4, align 1, !tbaa !21
  %6 = zext i8 %5 to i32
  %7 = and i32 %6, 128
  %8 = icmp eq i32 %7, 0
  br i1 %8, label %9, label %10

9:                                                ; preds = %1
  store i32 1, ptr %3, align 4, !tbaa !43
  br label %35

10:                                               ; preds = %1
  %11 = load ptr, ptr %2, align 8, !tbaa !14
  %12 = load i8, ptr %11, align 1, !tbaa !21
  %13 = zext i8 %12 to i32
  %14 = and i32 %13, 224
  %15 = icmp eq i32 %14, 192
  br i1 %15, label %16, label %17

16:                                               ; preds = %10
  store i32 2, ptr %3, align 4, !tbaa !43
  br label %34

17:                                               ; preds = %10
  %18 = load ptr, ptr %2, align 8, !tbaa !14
  %19 = load i8, ptr %18, align 1, !tbaa !21
  %20 = zext i8 %19 to i32
  %21 = and i32 %20, 240
  %22 = icmp eq i32 %21, 224
  br i1 %22, label %23, label %24

23:                                               ; preds = %17
  store i32 3, ptr %3, align 4, !tbaa !43
  br label %33

24:                                               ; preds = %17
  %25 = load ptr, ptr %2, align 8, !tbaa !14
  %26 = load i8, ptr %25, align 1, !tbaa !21
  %27 = zext i8 %26 to i32
  %28 = and i32 %27, 248
  %29 = icmp eq i32 %28, 240
  br i1 %29, label %30, label %31

30:                                               ; preds = %24
  store i32 4, ptr %3, align 4, !tbaa !43
  br label %32

31:                                               ; preds = %24
  store i32 1, ptr %3, align 4, !tbaa !43
  br label %32

32:                                               ; preds = %31, %30
  br label %33

33:                                               ; preds = %32, %23
  br label %34

34:                                               ; preds = %33, %16
  br label %35

35:                                               ; preds = %34, %9
  %36 = load i32, ptr %3, align 4, !tbaa !43
  call void @llvm.lifetime.end.p0(i64 4, ptr %3) #13
  ret i32 %36
}

; Function Attrs: mustprogress uwtable
define hidden noundef i32 @_ZN17duckdb_libpgquery20pg_mbstrlen_with_lenEPKci(ptr noundef %0, i32 noundef %1) #0 {
  %3 = alloca ptr, align 8
  %4 = alloca i32, align 4
  %5 = alloca i32, align 4
  %6 = alloca i32, align 4
  store ptr %0, ptr %3, align 8, !tbaa !14
  store i32 %1, ptr %4, align 4, !tbaa !43
  call void @llvm.lifetime.start.p0(i64 4, ptr %5) #13
  store i32 0, ptr %5, align 4, !tbaa !43
  br label %7

7:                                                ; preds = %16, %2
  %8 = load i32, ptr %4, align 4, !tbaa !43
  %9 = icmp sgt i32 %8, 0
  br i1 %9, label %10, label %14

10:                                               ; preds = %7
  %11 = load ptr, ptr %3, align 8, !tbaa !14
  %12 = load i8, ptr %11, align 1, !tbaa !21
  %13 = icmp ne i8 %12, 0
  br label %14

14:                                               ; preds = %10, %7
  %15 = phi i1 [ false, %7 ], [ %13, %10 ]
  br i1 %15, label %16, label %28

16:                                               ; preds = %14
  call void @llvm.lifetime.start.p0(i64 4, ptr %6) #13
  %17 = load ptr, ptr %3, align 8, !tbaa !14
  %18 = call noundef i32 @_ZN17duckdb_libpgqueryL12pg_utf_mblenEPKh(ptr noundef %17)
  store i32 %18, ptr %6, align 4, !tbaa !43
  %19 = load i32, ptr %6, align 4, !tbaa !43
  %20 = load i32, ptr %4, align 4, !tbaa !43
  %21 = sub nsw i32 %20, %19
  store i32 %21, ptr %4, align 4, !tbaa !43
  %22 = load i32, ptr %6, align 4, !tbaa !43
  %23 = load ptr, ptr %3, align 8, !tbaa !14
  %24 = sext i32 %22 to i64
  %25 = getelementptr inbounds i8, ptr %23, i64 %24
  store ptr %25, ptr %3, align 8, !tbaa !14
  %26 = load i32, ptr %5, align 4, !tbaa !43
  %27 = add nsw i32 %26, 1
  store i32 %27, ptr %5, align 4, !tbaa !43
  call void @llvm.lifetime.end.p0(i64 4, ptr %6) #13
  br label %7, !llvm.loop !49

28:                                               ; preds = %14
  %29 = load i32, ptr %5, align 4, !tbaa !43
  call void @llvm.lifetime.end.p0(i64 4, ptr %5) #13
  ret i32 %29
}