; Function Attrs: mustprogress nofree norecurse nosync nounwind willreturn memory(argmem: read) uwtable
define hidden noundef i32 @_ZN17duckdb_libpgquery20pg_mbstrlen_with_lenEPKci(ptr noundef readonly captures(none) %0, i32 noundef %1) local_unnamed_addr #21 {
  %3 = icmp sgt i32 %1, 0
  br i1 %3, label %.lr.ph, label %.critedge

.lr.ph:                                           ; preds = %2, %_ZN17duckdb_libpgqueryL12pg_utf_mblenEPKh.exit
  %.012 = phi ptr [ %19, %_ZN17duckdb_libpgqueryL12pg_utf_mblenEPKh.exit ], [ %0, %2 ]
  %.0811 = phi i32 [ %20, %_ZN17duckdb_libpgqueryL12pg_utf_mblenEPKh.exit ], [ 0, %2 ]
  %.0910 = phi i32 [ %17, %_ZN17duckdb_libpgqueryL12pg_utf_mblenEPKh.exit ], [ %1, %2 ]
  %4 = load i8, ptr %.012, align 1, !tbaa !19
  %.not = icmp eq i8 %4, 0
  br i1 %.not, label %.critedge, label %5

5:                                                ; preds = %.lr.ph
  %6 = zext i8 %4 to i32
  %7 = icmp sgt i8 %4, -1
  br i1 %7, label %_ZN17duckdb_libpgqueryL12pg_utf_mblenEPKh.exit, label %8

8:                                                ; preds = %5
  %9 = and i32 %6, 224
  %10 = icmp eq i32 %9, 192
  br i1 %10, label %_ZN17duckdb_libpgqueryL12pg_utf_mblenEPKh.exit, label %11

11:                                               ; preds = %8
  %12 = and i32 %6, 240
  %13 = icmp eq i32 %12, 224
  br i1 %13, label %_ZN17duckdb_libpgqueryL12pg_utf_mblenEPKh.exit, label %14

14:                                               ; preds = %11
  %15 = and i32 %6, 248
  %16 = icmp eq i32 %15, 240
  %..i = select i1 %16, i32 4, i32 1
  br label %_ZN17duckdb_libpgqueryL12pg_utf_mblenEPKh.exit

_ZN17duckdb_libpgqueryL12pg_utf_mblenEPKh.exit:   ; preds = %5, %8, %11, %14
  %.0.i = phi i32 [ 1, %5 ], [ 2, %8 ], [ 3, %11 ], [ %..i, %14 ]
  %17 = sub nsw i32 %.0910, %.0.i
  %18 = zext nneg i32 %.0.i to i64
  %19 = getelementptr inbounds nuw i8, ptr %.012, i64 %18
  %20 = add nuw nsw i32 %.0811, 1
  %21 = icmp sgt i32 %17, 0
  br i1 %21, label %.lr.ph, label %.critedge, !llvm.loop !31

.critedge:                                        ; preds = %.lr.ph, %_ZN17duckdb_libpgqueryL12pg_utf_mblenEPKh.exit, %2
  %.08.lcssa = phi i32 [ 0, %2 ], [ %20, %_ZN17duckdb_libpgqueryL12pg_utf_mblenEPKh.exit ], [ %.0811, %.lr.ph ]
  ret i32 %.08.lcssa
}